Certificate:
    Data:
        Version: 3 (0x2)
        Serial Number: 12473280770617026455 (0xad19fec64c56a797)
    Signature Algorithm: sha1WithRSAEncryption
        Issuer: O=SmartEngine, OU=IT/emailAddress=itoperation@smartengine.at, L=VIENNA, ST=VIENNA, C=AT, CN=develop.smartengine.at
        Validity
            Not Before: Apr 10 13:10:23 2012 GMT
            Not After : Apr  8 13:10:23 2022 GMT
        Subject: O=SmartEngine, OU=IT/emailAddress=itoperation@smartengine.at, L=VIENNA, ST=VIENNA, C=AT, CN=develop.smartengine.at
        Subject Public Key Info:
            Public Key Algorithm: rsaEncryption
                Public-Key: (4096 bit)
                Modulus:
                    00:cb:12:16:5f:5e:49:2c:56:84:e0:5b:df:78:34:
                    26:80:6c:6c:63:22:cb:9e:f1:f1:60:2d:60:a7:35:
                    e8:ca:ac:cf:0e:21:d1:75:13:40:0f:21:60:39:12:
                    cd:63:78:89:8c:84:55:bb:06:79:41:b7:d6:90:ae:
                    ce:43:84:a5:39:e0:c9:5d:98:7f:c6:dd:8d:96:f8:
                    3f:20:66:eb:c1:c2:98:66:01:90:36:21:4b:a1:e7:
                    62:3a:45:7f:38:8e:00:32:27:50:57:ef:a5:49:ee:
                    fd:9b:09:44:73:62:75:9d:37:fb:57:bb:27:89:53:
                    0f:2b:07:3a:4d:02:db:8e:09:8a:56:87:45:1e:de:
                    98:b9:41:f6:9f:ec:58:1c:58:8f:24:6d:c8:50:b2:
                    55:2e:aa:32:45:a9:e2:b6:1d:cb:42:e7:49:08:1f:
                    c7:94:ff:8a:58:e2:c6:57:db:9f:87:4f:0c:d5:78:
                    db:31:7b:01:0f:f2:f1:0d:79:ab:eb:a6:53:27:45:
                    6a:e3:49:c4:1a:4f:1a:95:15:d2:08:e4:3e:ba:4a:
                    d0:62:2d:a3:52:0a:05:5e:7d:74:48:56:f9:c7:7c:
                    48:c4:ad:d3:3c:3b:49:9d:43:18:2d:c0:49:ca:0c:
                    af:fb:0f:cc:89:49:90:b9:66:48:c5:39:06:61:4c:
                    f3:0d:bb:7f:b4:50:a5:f5:71:44:a2:e8:c1:6c:82:
                    43:7c:fd:0f:8a:ef:f2:4b:a5:2f:c2:e8:9a:7a:51:
                    9c:3f:3a:67:a9:bd:a3:b9:55:b5:6d:4b:0e:8d:e7:
                    9b:84:68:04:46:64:73:47:70:38:05:3f:85:20:a8:
                    09:d8:a6:53:40:03:db:c3:15:2d:c3:5d:89:a2:75:
                    97:51:f0:34:87:78:12:40:0d:2a:f4:e9:33:a0:79:
                    61:8c:14:09:0b:d6:f0:53:74:6b:6e:90:01:c0:90:
                    fc:2f:5e:90:a8:f8:c8:c9:54:de:fa:99:2e:8a:d7:
                    04:d1:44:c0:1b:d8:d1:ef:85:84:b0:2a:d5:58:a0:
                    9e:13:e4:6a:5f:22:45:7a:2a:f4:14:5d:79:c0:6e:
                    7a:a7:4c:95:c4:73:f1:9b:dc:77:6e:5d:77:c9:6e:
                    3f:e1:d6:7e:31:e1:23:e4:6b:aa:35:56:87:eb:35:
                    b3:68:ad:8f:31:74:4b:85:fd:04:58:4d:04:a3:ff:
                    bb:d3:f3:e7:25:71:1b:64:a2:7b:8d:e1:1a:da:7e:
                    1b:1a:c8:99:59:4d:28:b4:cf:f0:9d:07:4d:bd:f8:
                    6b:34:c2:48:23:db:8e:3a:40:c7:b7:31:d2:db:0b:
                    b1:f3:02:d7:12:86:47:c0:5b:c9:17:ee:26:10:7a:
                    12:ad:dd
                Exponent: 65537 (0x10001)
        X509v3 extensions:
            X509v3 Subject Alternative Name: 
                DNS:develop.smartengine.at, DNS:*.smartengine.at, DNS:smadev01.smartengine.at, DNS:smadev02.smartengine.at, DNS:demo.smartengine.at, DNS:smatools01.smartengine.at, DNS:smatools02.smartengine.at, DNS:smademo01.smartengine.at, DNS:smadev01, DNS:smadev02, DNS:smademo01, DNS:smatools01, DNS:smatools02
    Signature Algorithm: sha1WithRSAEncryption
         2d:87:65:c5:f2:ce:a9:b9:ef:83:9c:7f:ea:8a:1c:0b:49:8f:
         08:e7:e0:a3:7e:61:df:c8:76:7f:e1:5c:52:e9:f4:98:01:5f:
         b8:6e:76:99:1d:77:5b:29:8a:7b:95:13:45:05:94:55:c3:ba:
         74:4f:13:87:1f:ee:d7:b1:51:3b:82:fa:2e:05:25:be:03:ef:
         ef:c2:22:44:82:16:9f:d6:28:7e:14:f7:05:7a:d8:74:45:c4:
         e0:06:8e:45:a5:26:06:c8:2e:91:01:54:bc:a4:be:62:54:04:
         06:63:67:6f:51:1d:c8:2f:ca:e2:f0:20:50:ad:99:24:3b:bd:
         48:f0:ce:d7:68:2e:32:39:37:1f:fe:37:4c:ad:fb:1c:02:47:
         e0:61:99:2d:5f:10:9c:db:6e:ec:ec:9c:97:6e:ac:f0:ad:6b:
         8a:52:ec:5d:11:e7:23:c8:27:75:f4:97:97:18:59:89:35:19:
         ce:16:b9:1d:82:e5:fc:77:87:91:69:1c:cc:83:54:1b:84:bf:
         25:0b:7f:7f:98:86:f1:ff:60:e6:44:15:68:21:21:f6:7e:f0:
         93:c8:9d:88:f9:57:63:38:ef:76:37:36:a7:f1:53:1c:9c:8c:
         61:80:b4:86:b4:aa:4d:23:7f:31:53:7a:1a:0a:0a:2c:f8:5e:
         ef:f6:08:d2:a1:49:9e:d3:8e:3e:a9:aa:a1:72:53:a6:0e:8f:
         6f:47:83:61:b1:4b:12:ee:54:d2:7e:8d:50:1b:6a:3d:66:29:
         74:73:72:68:12:2a:f4:75:53:ca:38:59:f0:66:d5:27:7f:5f:
         48:9c:35:02:3c:30:57:4e:85:72:7b:88:19:b5:c2:bf:c2:e5:
         42:9e:a5:2a:15:b2:c5:ef:d3:ee:09:90:f8:0f:84:5c:8f:6a:
         ed:cf:59:67:50:ea:63:7c:1a:c4:f8:77:16:f1:5a:bd:76:e7:
         f9:83:8a:52:53:17:53:5d:3e:ba:fc:a6:a6:74:2c:d9:7b:c4:
         f7:81:cc:cc:24:0e:83:ee:03:58:7e:a5:cd:80:04:c1:c4:3a:
         8b:26:e5:64:a4:d3:5d:7a:92:ac:90:a1:c4:58:58:75:84:51:
         87:74:1e:da:0a:07:97:0c:ff:75:68:91:68:89:af:c5:b2:6d:
         0f:09:fb:10:dc:06:48:91:82:c2:78:cb:e7:e1:52:b7:54:1e:
         03:f3:2e:36:d1:5c:6e:47:a7:82:da:38:26:10:6f:f5:3a:0b:
         c6:ba:fb:42:07:ba:a3:44:b6:6b:cb:5e:b4:c2:6d:33:bf:71:
         d6:46:8a:57:fc:a1:9a:8b:02:e8:3e:e3:5c:0b:99:a3:10:23:
         c9:a5:5a:2b:0e:ec:36:75
-----BEGIN CERTIFICATE-----
MIIGzjCCBLagAwIBAgIJAK0Z/sZMVqeXMA0GCSqGSIb3DQEBBQUAMIGeMRQwEgYD
VQQKEwtTbWFydEVuZ2luZTELMAkGA1UECxMCSVQxKTAnBgkqhkiG9w0BCQEWGml0
b3BlcmF0aW9uQHNtYXJ0ZW5naW5lLmF0MQ8wDQYDVQQHEwZWSUVOTkExDzANBgNV
BAgTBlZJRU5OQTELMAkGA1UEBhMCQVQxHzAdBgNVBAMTFmRldmVsb3Auc21hcnRl
bmdpbmUuYXQwHhcNMTIwNDEwMTMxMDIzWhcNMjIwNDA4MTMxMDIzWjCBnjEUMBIG
A1UEChMLU21hcnRFbmdpbmUxCzAJBgNVBAsTAklUMSkwJwYJKoZIhvcNAQkBFhpp
dG9wZXJhdGlvbkBzbWFydGVuZ2luZS5hdDEPMA0GA1UEBxMGVklFTk5BMQ8wDQYD
VQQIEwZWSUVOTkExCzAJBgNVBAYTAkFUMR8wHQYDVQQDExZkZXZlbG9wLnNtYXJ0
ZW5naW5lLmF0MIICIjANBgkqhkiG9w0BAQEFAAOCAg8AMIICCgKCAgEAyxIWX15J
LFaE4FvfeDQmgGxsYyLLnvHxYC1gpzXoyqzPDiHRdRNADyFgORLNY3iJjIRVuwZ5
QbfWkK7OQ4SlOeDJXZh/xt2Nlvg/IGbrwcKYZgGQNiFLoediOkV/OI4AMidQV++l
Se79mwlEc2J1nTf7V7sniVMPKwc6TQLbjgmKVodFHt6YuUH2n+xYHFiPJG3IULJV
LqoyRanith3LQudJCB/HlP+KWOLGV9ufh08M1XjbMXsBD/LxDXmr66ZTJ0Vq40nE
Gk8alRXSCOQ+ukrQYi2jUgoFXn10SFb5x3xIxK3TPDtJnUMYLcBJygyv+w/MiUmQ
uWZIxTkGYUzzDbt/tFCl9XFEoujBbIJDfP0Piu/yS6UvwuiaelGcPzpnqb2juVW1
bUsOjeebhGgERmRzR3A4BT+FIKgJ2KZTQAPbwxUtw12JonWXUfA0h3gSQA0q9Okz
oHlhjBQJC9bwU3RrbpABwJD8L16QqPjIyVTe+pkuitcE0UTAG9jR74WEsCrVWKCe
E+RqXyJFeir0FF15wG56p0yVxHPxm9x3bl13yW4/4dZ+MeEj5GuqNVaH6zWzaK2P
MXRLhf0EWE0Eo/+70/PnJXEbZKJ7jeEa2n4bGsiZWU0otM/wnQdNvfhrNMJII9uO
OkDHtzHS2wux8wLXEoZHwFvJF+4mEHoSrd0CAwEAAaOCAQswggEHMIIBAwYDVR0R
BIH7MIH4ghZkZXZlbG9wLnNtYXJ0ZW5naW5lLmF0ghAqLnNtYXJ0ZW5naW5lLmF0
ghdzbWFkZXYwMS5zbWFydGVuZ2luZS5hdIIXc21hZGV2MDIuc21hcnRlbmdpbmUu
YXSCE2RlbW8uc21hcnRlbmdpbmUuYXSCGXNtYXRvb2xzMDEuc21hcnRlbmdpbmUu
YXSCGXNtYXRvb2xzMDIuc21hcnRlbmdpbmUuYXSCGHNtYWRlbW8wMS5zbWFydGVu
Z2luZS5hdIIIc21hZGV2MDGCCHNtYWRldjAygglzbWFkZW1vMDGCCnNtYXRvb2xz
MDGCCnNtYXRvb2xzMDIwDQYJKoZIhvcNAQEFBQADggIBAC2HZcXyzqm574Ocf+qK
HAtJjwjn4KN+Yd/Idn/hXFLp9JgBX7hudpkdd1spinuVE0UFlFXDunRPE4cf7tex
UTuC+i4FJb4D7+/CIkSCFp/WKH4U9wV62HRFxOAGjkWlJgbILpEBVLykvmJUBAZj
Z29RHcgvyuLwIFCtmSQ7vUjwztdoLjI5Nx/+N0yt+xwCR+BhmS1fEJzbbuzsnJdu
rPCta4pS7F0R5yPIJ3X0l5cYWYk1Gc4WuR2C5fx3h5FpHMyDVBuEvyULf3+YhvH/
YOZEFWghIfZ+8JPInYj5V2M473Y3NqfxUxycjGGAtIa0qk0jfzFTehoKCiz4Xu/2
CNKhSZ7Tjj6pqqFyU6YOj29Hg2GxSxLuVNJ+jVAbaj1mKXRzcmgSKvR1U8o4WfBm
1Sd/X0icNQI8MFdOhXJ7iBm1wr/C5UKepSoVssXv0+4JkPgPhFyPau3PWWdQ6mN8
GsT4dxbxWr125/mDilJTF1NdPrr8pqZ0LNl7xPeBzMwkDoPuA1h+pc2ABMHEOosm
5WSk0116kqyQocRYWHWEUYd0HtoKB5cM/3VokWiJr8WybQ8J+xDcBkiRgsJ4y+fh
UrdUHgPzLjbRXG5Hp4LaOCYQb/U6C8a6+0IHuqNEtmvLXrTCbTO/cdZGilf8oZqL
Aug+41wLmaMQI8mlWisO7DZ1
-----END CERTIFICATE-----
